target datalayout = "e-m:e-p270:32:32-p271:32:32-p272:64:64-i64:64-i128:128-f80:128-n8:16:32:64-S128"
target triple = "x86_64-pc-linux-gnu"

%"class.pxrInternal_v0_24__pxrReserved__::PxOsdMeshTopology" = type <{ %"class.pxrInternal_v0_24__pxrReserved__::TfToken", %"class.pxrInternal_v0_24__pxrReserved__::TfToken", %"class.pxrInternal_v0_24__pxrReserved__::VtArray", %"class.pxrInternal_v0_24__pxrReserved__::VtArray", %"class.pxrInternal_v0_24__pxrReserved__::VtArray", %"class.pxrInternal_v0_24__pxrReserved__::PxOsdSubdivTags", %"struct.pxrInternal_v0_24__pxrReserved__::PxOsdMeshTopology::_Validated", [7 x i8] }>
%"class.pxrInternal_v0_24__pxrReserved__::TfToken" = type { %"class.pxrInternal_v0_24__pxrReserved__::TfPointerAndBits" }
%"class.pxrInternal_v0_24__pxrReserved__::TfPointerAndBits" = type { ptr }
%"class.pxrInternal_v0_24__pxrReserved__::VtArray" = type { %"class.pxrInternal_v0_24__pxrReserved__::Vt_ArrayBase", ptr }
%"class.pxrInternal_v0_24__pxrReserved__::Vt_ArrayBase" = type { %"struct.pxrInternal_v0_24__pxrReserved__::Vt_ShapeData", ptr }
%"struct.pxrInternal_v0_24__pxrReserved__::Vt_ShapeData" = type { i64, [3 x i32] }
%"class.pxrInternal_v0_24__pxrReserved__::PxOsdSubdivTags" = type { %"class.pxrInternal_v0_24__pxrReserved__::TfToken", %"class.pxrInternal_v0_24__pxrReserved__::TfToken", %"class.pxrInternal_v0_24__pxrReserved__::TfToken", %"class.pxrInternal_v0_24__pxrReserved__::TfToken", %"class.pxrInternal_v0_24__pxrReserved__::VtArray", %"class.pxrInternal_v0_24__pxrReserved__::VtArray", %"class.pxrInternal_v0_24__pxrReserved__::VtArray.7", %"class.pxrInternal_v0_24__pxrReserved__::VtArray", %"class.pxrInternal_v0_24__pxrReserved__::VtArray.7" }
%"class.pxrInternal_v0_24__pxrReserved__::VtArray.7" = type { %"class.pxrInternal_v0_24__pxrReserved__::Vt_ArrayBase", ptr }
%"struct.pxrInternal_v0_24__pxrReserved__::PxOsdMeshTopology::_Validated" = type { %"struct.std::atomic" }
%"struct.std::atomic" = type { %"struct.std::__atomic_base" }
%"struct.std::__atomic_base" = type { i8 }

; Function Attrs: mustprogress uwtable
define void @_ZN32pxrInternal_v0_24__pxrReserved__27GeomUtilSphereMeshGenerator16GenerateTopologyEmmb(ptr dead_on_unwind noalias writable sret(%"class.pxrInternal_v0_24__pxrReserved__::PxOsdMeshTopology") align 8 %0, i64 noundef %1, i64 noundef %2, i1 noundef zeroext %3) #0 align 2 {
  %5 = alloca ptr, align 8
  %6 = alloca i64, align 8
  %7 = alloca i64, align 8
  %8 = alloca i8, align 1
  store ptr %0, ptr %5, align 8
  store i64 %1, ptr %6, align 8
  store i64 %2, ptr %7, align 8
  %9 = zext i1 %3 to i8
  store i8 %9, ptr %8, align 1
  %10 = load i64, ptr %6, align 8
  %11 = icmp ult i64 %10, 3
  br i1 %11, label %15, label %12

12:                                               ; preds = %4
  %13 = load i64, ptr %7, align 8
  %14 = icmp ult i64 %13, 2
  br i1 %14, label %15, label %16

15:                                               ; preds = %12, %4
  call void @_ZN32pxrInternal_v0_24__pxrReserved__17PxOsdMeshTopologyC1Ev(ptr noundef nonnull align 8 dereferenceable(369) %0)
  br label %22

16:                                               ; preds = %12
  %17 = load i64, ptr %6, align 8
  %18 = load i64, ptr %7, align 8
  %19 = sub i64 %18, 2
  %20 = load i8, ptr %8, align 1
  %21 = trunc i8 %20 to i1
  call void @_ZN32pxrInternal_v0_24__pxrReserved__25GeomUtilMeshGeneratorBase27_GenerateCappedQuadTopologyEmmNS0_9_CapStyleES1_b(ptr dead_on_unwind writable sret(%"class.pxrInternal_v0_24__pxrReserved__::PxOsdMeshTopology") align 8 %0, i64 noundef %17, i64 noundef %19, i32 noundef 1, i32 noundef 1, i1 noundef zeroext %21)
  br label %22

22:                                               ; preds = %16, %15
  ret void
}