; Function Attrs: mustprogress uwtable
define void @_ZN32pxrInternal_v0_24__pxrReserved__27GeomUtilSphereMeshGenerator16GenerateTopologyEmmb(ptr dead_on_unwind noalias writable sret(%"class.pxrInternal_v0_24__pxrReserved__::PxOsdMeshTopology") align 8 %0, i64 noundef %1, i64 noundef %2, i1 noundef zeroext %3) local_unnamed_addr #0 align 2 {
  %5 = icmp ult i64 %1, 3
  %6 = icmp ult i64 %2, 2
  %or.cond = or i1 %5, %6
  br i1 %or.cond, label %7, label %8

7:                                                ; preds = %4
  tail call void @_ZN32pxrInternal_v0_24__pxrReserved__17PxOsdMeshTopologyC1Ev(ptr noundef nonnull align 8 dereferenceable(369) %0)
  br label %10

8:                                                ; preds = %4
  %9 = add i64 %2, -2
  tail call void @_ZN32pxrInternal_v0_24__pxrReserved__25GeomUtilMeshGeneratorBase27_GenerateCappedQuadTopologyEmmNS0_9_CapStyleES1_b(ptr dead_on_unwind writable sret(%"class.pxrInternal_v0_24__pxrReserved__::PxOsdMeshTopology") align 8 %0, i64 noundef %1, i64 noundef %9, i32 noundef 1, i32 noundef 1, i1 noundef zeroext %3)
  br label %10

10:                                               ; preds = %8, %7
  ret void
}